target datalayout = "e-m:e-p270:32:32-p271:32:32-p272:64:64-i64:64-i128:128-f80:128-n8:16:32:64-S128"
target triple = "x86_64-pc-linux-gnu"

%class.LogTagSet = type { ptr, i64, [5 x i32], [4 x i8], %class.LogOutputList, %class.LogDecorators, ptr }
%class.LogOutputList = type <{ [6 x ptr], i32, [4 x i8] }>
%class.LogDecorators = type { i32 }
%"class.StringDedup::Stat" = type { i64, i64, i64, i64, i64, i64, i64, i64, i64, i64, i64, i64, i64, i64, i64, i64, i64, %class.TimeInstant, %class.TimeInterval, %class.TimeInstant, %class.TimeInterval, %class.TimeInterval, %class.TimeInterval, %class.TimeInterval }
%class.TimeInstant = type { %class.CompositeCounterRepresentation }
%class.CompositeCounterRepresentation = type { %class.Representation }
%class.Representation = type { %class.PairRep }
%class.PairRep = type { i64, i64 }
%class.TimeInterval = type { %class.CompositeCounterRepresentation }

@.str.5 = private unnamed_addr constant [19 x i8] c"Active end: %.3fms\00", align 1
@_ZN16LogTagSetMappingILN6LogTag4typeE148ELS1_114ELS1_0ELS1_0ELS1_0ELS1_0EE7_tagsetE = linkonce_odr hidden global %class.LogTagSet zeroinitializer, comdat, align 8

; Function Attrs: mustprogress nounwind uwtable
define linkonce_odr hidden void @_ZN7PairRepIllEmIERKS0_(ptr noundef nonnull align 8 dereferenceable(16) %0, ptr noundef nonnull align 8 dereferenceable(16) %1) #1 comdat align 2 {
  %3 = alloca ptr, align 8
  %4 = alloca ptr, align 8
  store ptr %0, ptr %3, align 8
  store ptr %1, ptr %4, align 8
  %5 = load ptr, ptr %3, align 8
  %6 = load ptr, ptr %4, align 8
  %7 = getelementptr inbounds %class.PairRep, ptr %6, i32 0, i32 0
  %8 = load i64, ptr %7, align 8
  %9 = getelementptr inbounds %class.PairRep, ptr %5, i32 0, i32 0
  %10 = load i64, ptr %9, align 8
  %11 = sub nsw i64 %10, %8
  store i64 %11, ptr %9, align 8
  %12 = load ptr, ptr %4, align 8
  %13 = getelementptr inbounds %class.PairRep, ptr %12, i32 0, i32 1
  %14 = load i64, ptr %13, align 8
  %15 = getelementptr inbounds %class.PairRep, ptr %5, i32 0, i32 1
  %16 = load i64, ptr %15, align 8
  %17 = sub nsw i64 %16, %14
  store i64 %17, ptr %15, align 8
  ret void
}

; Function Attrs: mustprogress nounwind uwtable
define linkonce_odr hidden { i64, i64 } @_ZmiIllE7PairRepIT_T0_ERKS3_S5_(ptr noundef nonnull align 8 dereferenceable(16) %0, ptr noundef nonnull align 8 dereferenceable(16) %1) #1 comdat {
  %3 = alloca %class.PairRep, align 8
  %4 = alloca ptr, align 8
  %5 = alloca ptr, align 8
  store ptr %0, ptr %4, align 8
  store ptr %1, ptr %5, align 8
  %6 = load ptr, ptr %4, align 8
  call void @llvm.memcpy.p0.p0.i64(ptr align 8 %3, ptr align 8 %6, i64 16, i1 false)
  %7 = load ptr, ptr %5, align 8
  call void @_ZN7PairRepIllEmIERKS0_(ptr noundef nonnull align 8 dereferenceable(16) %3, ptr noundef nonnull align 8 dereferenceable(16) %7)
  %8 = load { i64, i64 }, ptr %3, align 8
  ret { i64, i64 } %8
}

; Function Attrs: mustprogress nounwind uwtable
define linkonce_odr hidden void @_ZN7PairRepIllEC2Ev(ptr noundef nonnull align 8 dereferenceable(16) %0) unnamed_addr #1 comdat align 2 {
  %2 = alloca ptr, align 8
  store ptr %0, ptr %2, align 8
  %3 = load ptr, ptr %2, align 8
  %4 = getelementptr inbounds %class.PairRep, ptr %3, i32 0, i32 0
  store i64 0, ptr %4, align 8
  %5 = getelementptr inbounds %class.PairRep, ptr %3, i32 0, i32 1
  store i64 0, ptr %5, align 8
  ret void
}

; Function Attrs: mustprogress nounwind uwtable
define linkonce_odr hidden void @_ZN14RepresentationI29CompositeElapsedCounterSourceEC2ERKS1_S3_(ptr noundef nonnull align 8 dereferenceable(16) %0, ptr noundef nonnull align 8 dereferenceable(16) %1, ptr noundef nonnull align 8 dereferenceable(16) %2) unnamed_addr #1 comdat align 2 {
  %4 = alloca ptr, align 8
  %5 = alloca ptr, align 8
  %6 = alloca ptr, align 8
  store ptr %0, ptr %4, align 8
  store ptr %1, ptr %5, align 8
  store ptr %2, ptr %6, align 8
  %7 = load ptr, ptr %4, align 8
  %8 = getelementptr inbounds %class.Representation, ptr %7, i32 0, i32 0
  %9 = load ptr, ptr %5, align 8
  %10 = getelementptr inbounds %class.Representation, ptr %9, i32 0, i32 0
  %11 = load ptr, ptr %6, align 8
  %12 = getelementptr inbounds %class.Representation, ptr %11, i32 0, i32 0
  %13 = call { i64, i64 } @_ZmiIllE7PairRepIT_T0_ERKS3_S5_(ptr noundef nonnull align 8 dereferenceable(16) %10, ptr noundef nonnull align 8 dereferenceable(16) %12)
  %14 = getelementptr inbounds { i64, i64 }, ptr %8, i32 0, i32 0
  %15 = extractvalue { i64, i64 } %13, 0
  store i64 %15, ptr %14, align 8
  %16 = getelementptr inbounds { i64, i64 }, ptr %8, i32 0, i32 1
  %17 = extractvalue { i64, i64 } %13, 1
  store i64 %17, ptr %16, align 8
  ret void
}

; Function Attrs: mustprogress nounwind uwtable
define linkonce_odr hidden void @_ZN14RepresentationI29CompositeElapsedCounterSourceEC2Ev(ptr noundef nonnull align 8 dereferenceable(16) %0) unnamed_addr #1 comdat align 2 {
  %2 = alloca ptr, align 8
  store ptr %0, ptr %2, align 8
  %3 = load ptr, ptr %2, align 8
  %4 = getelementptr inbounds %class.Representation, ptr %3, i32 0, i32 0
  call void @_ZN7PairRepIllEC2Ev(ptr noundef nonnull align 8 dereferenceable(16) %4)
  ret void
}

; Function Attrs: mustprogress nounwind uwtable
define linkonce_odr hidden noundef zeroext i1 @_ZNK13LogOutputList8is_levelEN8LogLevel4typeE(ptr noundef nonnull align 8 dereferenceable(52) %0, i32 noundef %1) #1 comdat align 2 {
  %3 = alloca ptr, align 8
  %4 = alloca i32, align 4
  store ptr %0, ptr %3, align 8
  store i32 %1, ptr %4, align 4
  %5 = load ptr, ptr %3, align 8
  %6 = getelementptr inbounds %class.LogOutputList, ptr %5, i32 0, i32 0
  %7 = load i32, ptr %4, align 4
  %8 = zext i32 %7 to i64
  %9 = getelementptr inbounds [6 x ptr], ptr %6, i64 0, i64 %8
  %10 = load volatile ptr, ptr %9, align 8
  %11 = icmp ne ptr %10, null
  ret i1 %11
}

; Function Attrs: mustprogress nounwind uwtable
define linkonce_odr hidden void @_ZN30CompositeCounterRepresentationI29CompositeElapsedCounterSourceEC2ERKS1_S3_(ptr noundef nonnull align 8 dereferenceable(16) %0, ptr noundef nonnull align 8 dereferenceable(16) %1, ptr noundef nonnull align 8 dereferenceable(16) %2) unnamed_addr #1 comdat align 2 {
  %4 = alloca ptr, align 8
  %5 = alloca ptr, align 8
  %6 = alloca ptr, align 8
  store ptr %0, ptr %4, align 8
  store ptr %1, ptr %5, align 8
  store ptr %2, ptr %6, align 8
  %7 = load ptr, ptr %4, align 8
  %8 = load ptr, ptr %5, align 8
  %9 = load ptr, ptr %6, align 8
  call void @_ZN14RepresentationI29CompositeElapsedCounterSourceEC2ERKS1_S3_(ptr noundef nonnull align 8 dereferenceable(16) %7, ptr noundef nonnull align 8 dereferenceable(16) %8, ptr noundef nonnull align 8 dereferenceable(16) %9)
  ret void
}

; Function Attrs: mustprogress nounwind uwtable
define linkonce_odr hidden void @_ZN30CompositeCounterRepresentationI29CompositeElapsedCounterSourceEC2Ev(ptr noundef nonnull align 8 dereferenceable(16) %0) unnamed_addr #1 comdat align 2 {
  %2 = alloca ptr, align 8
  store ptr %0, ptr %2, align 8
  %3 = load ptr, ptr %2, align 8
  call void @_ZN14RepresentationI29CompositeElapsedCounterSourceEC2Ev(ptr noundef nonnull align 8 dereferenceable(16) %3)
  ret void
}

; Function Attrs: mustprogress nounwind uwtable
define linkonce_odr hidden noundef double @_ZNK14RepresentationI29CompositeElapsedCounterSourceE7secondsEv(ptr noundef nonnull align 8 dereferenceable(16) %0) #1 comdat align 2 {
  %2 = alloca ptr, align 8
  %3 = alloca %class.PairRep, align 8
  store ptr %0, ptr %2, align 8
  %4 = load ptr, ptr %2, align 8
  %5 = getelementptr inbounds %class.Representation, ptr %4, i32 0, i32 0
  call void @llvm.memcpy.p0.p0.i64(ptr align 8 %3, ptr align 8 %5, i64 16, i1 false)
  %6 = getelementptr inbounds { i64, i64 }, ptr %3, i32 0, i32 0
  %7 = load i64, ptr %6, align 8
  %8 = getelementptr inbounds { i64, i64 }, ptr %3, i32 0, i32 1
  %9 = load i64, ptr %8, align 8
  %10 = call noundef double @_ZN29CompositeElapsedCounterSource7secondsE7PairRepIllE(i64 %7, i64 %9)
  ret double %10
}

; Function Attrs: mustprogress nounwind uwtable
define linkonce_odr hidden noundef zeroext i1 @_ZNK9LogTagSet8is_levelEN8LogLevel4typeE(ptr noundef nonnull align 8 dereferenceable(112) %0, i32 noundef %1) #1 comdat align 2 {
  %3 = alloca ptr, align 8
  %4 = alloca i32, align 4
  store ptr %0, ptr %3, align 8
  store i32 %1, ptr %4, align 4
  %5 = load ptr, ptr %3, align 8
  %6 = getelementptr inbounds %class.LogTagSet, ptr %5, i32 0, i32 4
  %7 = load i32, ptr %4, align 4
  %8 = call noundef zeroext i1 @_ZNK13LogOutputList8is_levelEN8LogLevel4typeE(ptr noundef nonnull align 8 dereferenceable(52) %6, i32 noundef %7)
  ret i1 %8
}

; Function Attrs: mustprogress nounwind uwtable
define linkonce_odr hidden noundef nonnull align 8 dereferenceable(112) ptr @_ZN16LogTagSetMappingILN6LogTag4typeE148ELS1_114ELS1_0ELS1_0ELS1_0ELS1_0EE6tagsetEv() #1 comdat align 2 {
  ret ptr @_ZN16LogTagSetMappingILN6LogTag4typeE148ELS1_114ELS1_0ELS1_0ELS1_0ELS1_0EE7_tagsetE
}

; Function Attrs: mustprogress nounwind uwtable
define linkonce_odr hidden void @_ZN7PairRepIllEpLERKS0_(ptr noundef nonnull align 8 dereferenceable(16) %0, ptr noundef nonnull align 8 dereferenceable(16) %1) #1 comdat align 2 {
  %3 = alloca ptr, align 8
  %4 = alloca ptr, align 8
  store ptr %0, ptr %3, align 8
  store ptr %1, ptr %4, align 8
  %5 = load ptr, ptr %3, align 8
  %6 = load ptr, ptr %4, align 8
  %7 = getelementptr inbounds %class.PairRep, ptr %6, i32 0, i32 0
  %8 = load i64, ptr %7, align 8
  %9 = getelementptr inbounds %class.PairRep, ptr %5, i32 0, i32 0
  %10 = load i64, ptr %9, align 8
  %11 = add nsw i64 %10, %8
  store i64 %11, ptr %9, align 8
  %12 = load ptr, ptr %4, align 8
  %13 = getelementptr inbounds %class.PairRep, ptr %12, i32 0, i32 1
  %14 = load i64, ptr %13, align 8
  %15 = getelementptr inbounds %class.PairRep, ptr %5, i32 0, i32 1
  %16 = load i64, ptr %15, align 8
  %17 = add nsw i64 %16, %14
  store i64 %17, ptr %15, align 8
  ret void
}

; Function Attrs: mustprogress nounwind uwtable
define linkonce_odr hidden void @_ZN12TimeIntervalI30CompositeCounterRepresentation29CompositeElapsedCounterSourceEC2ERK11TimeInstantIS0_S1_ES6_(ptr noundef nonnull align 8 dereferenceable(16) %0, ptr noundef nonnull align 8 dereferenceable(16) %1, ptr noundef nonnull align 8 dereferenceable(16) %2) unnamed_addr #1 comdat align 2 {
  %4 = alloca ptr, align 8
  %5 = alloca ptr, align 8
  %6 = alloca ptr, align 8
  store ptr %0, ptr %4, align 8
  store ptr %1, ptr %5, align 8
  store ptr %2, ptr %6, align 8
  %7 = load ptr, ptr %4, align 8
  %8 = load ptr, ptr %5, align 8
  %9 = load ptr, ptr %6, align 8
  call void @_ZN30CompositeCounterRepresentationI29CompositeElapsedCounterSourceEC2ERKS1_S3_(ptr noundef nonnull align 8 dereferenceable(16) %7, ptr noundef nonnull align 8 dereferenceable(16) %8, ptr noundef nonnull align 8 dereferenceable(16) %9)
  ret void
}

; Function Attrs: mustprogress nounwind uwtable
define linkonce_odr hidden void @_ZN11TimeInstantI30CompositeCounterRepresentation29CompositeElapsedCounterSourceE5stampEv(ptr noundef nonnull align 8 dereferenceable(16) %0) #1 comdat align 2 {
  %2 = alloca ptr, align 8
  %3 = alloca %class.PairRep, align 8
  store ptr %0, ptr %2, align 8
  %4 = load ptr, ptr %2, align 8
  %5 = call { i64, i64 } @_ZN29CompositeElapsedCounterSource3nowEv()
  %6 = getelementptr inbounds { i64, i64 }, ptr %3, i32 0, i32 0
  %7 = extractvalue { i64, i64 } %5, 0
  store i64 %7, ptr %6, align 8
  %8 = getelementptr inbounds { i64, i64 }, ptr %3, i32 0, i32 1
  %9 = extractvalue { i64, i64 } %5, 1
  store i64 %9, ptr %8, align 8
  %10 = getelementptr inbounds %class.Representation, ptr %4, i32 0, i32 0
  call void @llvm.memcpy.p0.p0.i64(ptr align 8 %10, ptr align 8 %3, i64 16, i1 false)
  ret void
}

; Function Attrs: mustprogress nounwind uwtable
define linkonce_odr hidden void @_ZN11TimeInstantI30CompositeCounterRepresentation29CompositeElapsedCounterSourceEC2Ev(ptr noundef nonnull align 8 dereferenceable(16) %0) unnamed_addr #1 comdat align 2 {
  %2 = alloca ptr, align 8
  store ptr %0, ptr %2, align 8
  %3 = load ptr, ptr %2, align 8
  call void @_ZN30CompositeCounterRepresentationI29CompositeElapsedCounterSourceEC2Ev(ptr noundef nonnull align 8 dereferenceable(16) %3)
  ret void
}

; Function Attrs: mustprogress nounwind uwtable
define internal noundef double @_ZL25strdedup_elapsed_param_ms12TimeIntervalI30CompositeCounterRepresentation29CompositeElapsedCounterSourceE(i64 %0, i64 %1) #1 {
  %3 = alloca %class.TimeInterval, align 8
  %4 = getelementptr inbounds { i64, i64 }, ptr %3, i32 0, i32 0
  store i64 %0, ptr %4, align 8
  %5 = getelementptr inbounds { i64, i64 }, ptr %3, i32 0, i32 1
  store i64 %1, ptr %5, align 8
  %6 = call noundef double @_ZNK14RepresentationI29CompositeElapsedCounterSourceE7secondsEv(ptr noundef nonnull align 8 dereferenceable(16) %3)
  %7 = fmul double %6, 1.000000e+03
  ret double %7
}

; Function Attrs: mustprogress nounwind uwtable
define linkonce_odr hidden noundef zeroext i1 @_ZN7LogImplILN6LogTag4typeE148ELS1_114ELS1_0ELS1_0ELS1_0ELS1_0EE8is_levelEN8LogLevel4typeE(i32 noundef %0) #1 comdat align 2 {
  %2 = alloca i32, align 4
  store i32 %0, ptr %2, align 4
  %3 = call noundef nonnull align 8 dereferenceable(112) ptr @_ZN16LogTagSetMappingILN6LogTag4typeE148ELS1_114ELS1_0ELS1_0ELS1_0ELS1_0EE6tagsetEv()
  %4 = load i32, ptr %2, align 4
  %5 = call noundef zeroext i1 @_ZNK9LogTagSet8is_levelEN8LogLevel4typeE(ptr noundef nonnull align 8 dereferenceable(112) %3, i32 noundef %4)
  ret i1 %5
}

; Function Attrs: mustprogress nounwind uwtable
define linkonce_odr hidden void @_ZN14RepresentationI29CompositeElapsedCounterSourceEpLERKS1_(ptr noundef nonnull align 8 dereferenceable(16) %0, ptr noundef nonnull align 8 dereferenceable(16) %1) #1 comdat align 2 {
  %3 = alloca ptr, align 8
  %4 = alloca ptr, align 8
  store ptr %0, ptr %3, align 8
  store ptr %1, ptr %4, align 8
  %5 = load ptr, ptr %3, align 8
  %6 = load ptr, ptr %4, align 8
  %7 = getelementptr inbounds %class.Representation, ptr %6, i32 0, i32 0
  %8 = getelementptr inbounds %class.Representation, ptr %5, i32 0, i32 0
  call void @_ZN7PairRepIllEpLERKS0_(ptr noundef nonnull align 8 dereferenceable(16) %8, ptr noundef nonnull align 8 dereferenceable(16) %7)
  ret void
}

; Function Attrs: mustprogress nounwind uwtable
define linkonce_odr hidden { i64, i64 } @_ZNK11TimeInstantI30CompositeCounterRepresentation29CompositeElapsedCounterSourceEmiERKS2_(ptr noundef nonnull align 8 dereferenceable(16) %0, ptr noundef nonnull align 8 dereferenceable(16) %1) #1 comdat align 2 {
  %3 = alloca %class.TimeInterval, align 8
  %4 = alloca ptr, align 8
  %5 = alloca ptr, align 8
  store ptr %0, ptr %4, align 8
  store ptr %1, ptr %5, align 8
  %6 = load ptr, ptr %4, align 8
  %7 = load ptr, ptr %5, align 8
  call void @_ZN12TimeIntervalI30CompositeCounterRepresentation29CompositeElapsedCounterSourceEC2ERK11TimeInstantIS0_S1_ES6_(ptr noundef nonnull align 8 dereferenceable(16) %3, ptr noundef nonnull align 8 dereferenceable(16) %6, ptr noundef nonnull align 8 dereferenceable(16) %7)
  %8 = getelementptr inbounds %class.TimeInterval, ptr %3, i32 0, i32 0
  %9 = getelementptr inbounds %class.CompositeCounterRepresentation, ptr %8, i32 0, i32 0
  %10 = getelementptr inbounds %class.Representation, ptr %9, i32 0, i32 0
  %11 = load { i64, i64 }, ptr %10, align 8
  ret { i64, i64 } %11
}

; Function Attrs: mustprogress nounwind uwtable
define linkonce_odr hidden { i64, i64 } @_ZN11TimeInstantI30CompositeCounterRepresentation29CompositeElapsedCounterSourceE3nowEv() #1 comdat align 2 {
  %1 = alloca %class.TimeInstant, align 8
  call void @_ZN11TimeInstantI30CompositeCounterRepresentation29CompositeElapsedCounterSourceEC2Ev(ptr noundef nonnull align 8 dereferenceable(16) %1)
  call void @_ZN11TimeInstantI30CompositeCounterRepresentation29CompositeElapsedCounterSourceE5stampEv(ptr noundef nonnull align 8 dereferenceable(16) %1)
  %2 = getelementptr inbounds %class.TimeInstant, ptr %1, i32 0, i32 0
  %3 = getelementptr inbounds %class.CompositeCounterRepresentation, ptr %2, i32 0, i32 0
  %4 = getelementptr inbounds %class.Representation, ptr %3, i32 0, i32 0
  %5 = load { i64, i64 }, ptr %4, align 8
  ret { i64, i64 } %5
}

; Function Attrs: mustprogress nounwind uwtable
define hidden void @_ZN11StringDedup4Stat17report_active_endEv(ptr noundef nonnull align 8 dereferenceable(248) %0) #1 align 2 {
  %2 = alloca ptr, align 8
  %3 = alloca %class.TimeInterval, align 8
  %4 = alloca %class.TimeInstant, align 8
  %5 = alloca %class.TimeInterval, align 8
  store ptr %0, ptr %2, align 8
  %6 = load ptr, ptr %2, align 8
  %7 = call { i64, i64 } @_ZN11TimeInstantI30CompositeCounterRepresentation29CompositeElapsedCounterSourceE3nowEv()
  %8 = getelementptr inbounds %class.TimeInstant, ptr %4, i32 0, i32 0
  %9 = getelementptr inbounds %class.CompositeCounterRepresentation, ptr %8, i32 0, i32 0
  %10 = getelementptr inbounds %class.Representation, ptr %9, i32 0, i32 0
  %11 = getelementptr inbounds { i64, i64 }, ptr %10, i32 0, i32 0
  %12 = extractvalue { i64, i64 } %7, 0
  store i64 %12, ptr %11, align 8
  %13 = getelementptr inbounds { i64, i64 }, ptr %10, i32 0, i32 1
  %14 = extractvalue { i64, i64 } %7, 1
  store i64 %14, ptr %13, align 8
  %15 = getelementptr inbounds %"class.StringDedup::Stat", ptr %6, i32 0, i32 17
  %16 = call { i64, i64 } @_ZNK11TimeInstantI30CompositeCounterRepresentation29CompositeElapsedCounterSourceEmiERKS2_(ptr noundef nonnull align 8 dereferenceable(16) %4, ptr noundef nonnull align 8 dereferenceable(16) %15)
  %17 = getelementptr inbounds %class.TimeInterval, ptr %3, i32 0, i32 0
  %18 = getelementptr inbounds %class.CompositeCounterRepresentation, ptr %17, i32 0, i32 0
  %19 = getelementptr inbounds %class.Representation, ptr %18, i32 0, i32 0
  %20 = getelementptr inbounds { i64, i64 }, ptr %19, i32 0, i32 0
  %21 = extractvalue { i64, i64 } %16, 0
  store i64 %21, ptr %20, align 8
  %22 = getelementptr inbounds { i64, i64 }, ptr %19, i32 0, i32 1
  %23 = extractvalue { i64, i64 } %16, 1
  store i64 %23, ptr %22, align 8
  %24 = getelementptr inbounds %"class.StringDedup::Stat", ptr %6, i32 0, i32 18
  call void @_ZN14RepresentationI29CompositeElapsedCounterSourceEpLERKS1_(ptr noundef nonnull align 8 dereferenceable(16) %24, ptr noundef nonnull align 8 dereferenceable(16) %3)
  %25 = call noundef zeroext i1 @_ZN7LogImplILN6LogTag4typeE148ELS1_114ELS1_0ELS1_0ELS1_0ELS1_0EE8is_levelEN8LogLevel4typeE(i32 noundef 2)
  br i1 %25, label %27, label %26

26:                                               ; preds = %1
  br label %34

27:                                               ; preds = %1
  %28 = getelementptr inbounds %"class.StringDedup::Stat", ptr %6, i32 0, i32 18
  call void @llvm.memcpy.p0.p0.i64(ptr align 8 %5, ptr align 8 %28, i64 16, i1 false)
  %29 = getelementptr inbounds { i64, i64 }, ptr %5, i32 0, i32 0
  %30 = load i64, ptr %29, align 8
  %31 = getelementptr inbounds { i64, i64 }, ptr %5, i32 0, i32 1
  %32 = load i64, ptr %31, align 8
  %33 = call noundef double @_ZL25strdedup_elapsed_param_ms12TimeIntervalI30CompositeCounterRepresentation29CompositeElapsedCounterSourceE(i64 %30, i64 %32)
  call void (ptr, ...) @_ZN7LogImplILN6LogTag4typeE148ELS1_114ELS1_0ELS1_0ELS1_0ELS1_0EE5writeILN8LogLevel4typeE2EEEvPKcz(ptr noundef @.str.5, double noundef %33)
  br label %34

34:                                               ; preds = %27, %26
  ret void
}