; Function Attrs: mustprogress nounwind uwtable
define hidden void @_ZN11StringDedup4Stat17report_active_endEv(ptr nocapture noundef nonnull align 8 dereferenceable(248) %0) local_unnamed_addr #2 align 2 {
  %2 = tail call { i64, i64 } @_ZN29CompositeElapsedCounterSource3nowEv() #7
  %3 = extractvalue { i64, i64 } %2, 0
  %4 = extractvalue { i64, i64 } %2, 1
  %5 = getelementptr inbounds i8, ptr %0, i64 136
  %6 = load i64, ptr %5, align 8
  %7 = sub nsw i64 %3, %6
  %8 = getelementptr inbounds i8, ptr %0, i64 144
  %9 = load i64, ptr %8, align 8
  %10 = sub i64 %4, %9
  %11 = getelementptr inbounds i8, ptr %0, i64 152
  %12 = load i64, ptr %11, align 8
  %13 = add nsw i64 %12, %7
  store i64 %13, ptr %11, align 8
  %14 = getelementptr inbounds i8, ptr %0, i64 160
  %15 = load i64, ptr %14, align 8
  %16 = add nsw i64 %10, %15
  store i64 %16, ptr %14, align 8
  %17 = load volatile ptr, ptr getelementptr inbounds (i8, ptr @_ZN16LogTagSetMappingILN6LogTag4typeE148ELS1_114ELS1_0ELS1_0ELS1_0ELS1_0EE7_tagsetE, i64 56), align 8
  %.not = icmp eq ptr %17, null
  br i1 %.not, label %21, label %18

18:                                               ; preds = %1
  %19 = tail call noundef double @_ZN29CompositeElapsedCounterSource7secondsE7PairRepIllE(i64 %13, i64 %16) #7
  %20 = fmul double %19, 1.000000e+03
  tail call void (ptr, ...) @_ZN7LogImplILN6LogTag4typeE148ELS1_114ELS1_0ELS1_0ELS1_0ELS1_0EE5writeILN8LogLevel4typeE2EEEvPKcz(ptr noundef nonnull @.str.5, double noundef %20)
  br label %21

21:                                               ; preds = %1, %18
  ret void
}